target datalayout = "e-m:e-p270:32:32-p271:32:32-p272:64:64-i64:64-i128:128-f80:128-n8:16:32:64-S128"
target triple = "x86_64-pc-linux-gnu"

%struct.lib_info = type { [4352 x i8], i64, i64, i64, i64, %struct.eh_frame_info, ptr, i32, ptr }
%struct.eh_frame_info = type { i64, i64, ptr, i32 }
%struct.Elf64_Ehdr = type { [16 x i8], i16, i16, i32, i64, i64, i64, i32, i16, i16, i16, i16, i16, i16 }
%struct.Elf64_Shdr = type { i32, i32, i64, i64, i64, i64, i32, i32, i64, i64 }

@.str.4 = private unnamed_addr constant [10 x i8] c".eh_frame\00", align 1

; Function Attrs: nounwind uwtable
define hidden i32 @read_eh_frame(ptr noundef %0, ptr noundef %1) #0 {
  %3 = alloca ptr, align 8
  %4 = alloca ptr, align 8
  %5 = alloca i64, align 8
  %6 = alloca %struct.Elf64_Ehdr, align 8
  %7 = alloca ptr, align 8
  %8 = alloca ptr, align 8
  %9 = alloca ptr, align 8
  %10 = alloca i32, align 4
  store ptr %0, ptr %3, align 8
  store ptr %1, ptr %4, align 8
  store i64 -1, ptr %5, align 8
  store ptr null, ptr %7, align 8
  store ptr null, ptr %8, align 8
  store ptr null, ptr %9, align 8
  %11 = load ptr, ptr %4, align 8
  %12 = getelementptr inbounds %struct.lib_info, ptr %11, i32 0, i32 7
  %13 = load i32, ptr %12, align 8
  %14 = call i64 @lseek64(i32 noundef %13, i64 noundef 0, i32 noundef 1) #6
  store i64 %14, ptr %5, align 8
  %15 = load ptr, ptr %4, align 8
  %16 = getelementptr inbounds %struct.lib_info, ptr %15, i32 0, i32 7
  %17 = load i32, ptr %16, align 8
  %18 = call i64 @lseek64(i32 noundef %17, i64 noundef 0, i32 noundef 0) #6
  %19 = load ptr, ptr %4, align 8
  %20 = getelementptr inbounds %struct.lib_info, ptr %19, i32 0, i32 7
  %21 = load i32, ptr %20, align 8
  %22 = call i32 @read_elf_header(i32 noundef %21, ptr noundef %6)
  %23 = load ptr, ptr %4, align 8
  %24 = getelementptr inbounds %struct.lib_info, ptr %23, i32 0, i32 7
  %25 = load i32, ptr %24, align 8
  %26 = call ptr @read_section_header_table(i32 noundef %25, ptr noundef %6)
  store ptr %26, ptr %7, align 8
  %27 = load ptr, ptr %4, align 8
  %28 = getelementptr inbounds %struct.lib_info, ptr %27, i32 0, i32 7
  %29 = load i32, ptr %28, align 8
  %30 = load ptr, ptr %7, align 8
  %31 = getelementptr inbounds %struct.Elf64_Ehdr, ptr %6, i32 0, i32 13
  %32 = load i16, ptr %31, align 2
  %33 = zext i16 %32 to i64
  %34 = getelementptr inbounds %struct.Elf64_Shdr, ptr %30, i64 %33
  %35 = call ptr @read_section_data(i32 noundef %29, ptr noundef %6, ptr noundef %34)
  store ptr %35, ptr %9, align 8
  store i32 0, ptr %10, align 4
  %36 = load ptr, ptr %7, align 8
  store ptr %36, ptr %8, align 8
  br label %37

37:                                               ; preds = %81, %2
  %38 = load i32, ptr %10, align 4
  %39 = getelementptr inbounds %struct.Elf64_Ehdr, ptr %6, i32 0, i32 12
  %40 = load i16, ptr %39, align 4
  %41 = zext i16 %40 to i32
  %42 = icmp slt i32 %38, %41
  br i1 %42, label %43, label %86

43:                                               ; preds = %37
  %44 = load ptr, ptr %8, align 8
  %45 = getelementptr inbounds %struct.Elf64_Shdr, ptr %44, i32 0, i32 0
  %46 = load i32, ptr %45, align 8
  %47 = load ptr, ptr %9, align 8
  %48 = zext i32 %46 to i64
  %49 = getelementptr inbounds i8, ptr %47, i64 %48
  %50 = call i32 @strcmp(ptr noundef @.str.4, ptr noundef %49) #7
  %51 = icmp eq i32 %50, 0
  br i1 %51, label %52, label %80

52:                                               ; preds = %43
  %53 = load ptr, ptr %4, align 8
  %54 = getelementptr inbounds %struct.lib_info, ptr %53, i32 0, i32 1
  %55 = load i64, ptr %54, align 8
  %56 = load ptr, ptr %4, align 8
  %57 = getelementptr inbounds %struct.lib_info, ptr %56, i32 0, i32 5
  %58 = getelementptr inbounds %struct.eh_frame_info, ptr %57, i32 0, i32 0
  store i64 %55, ptr %58, align 8
  %59 = load ptr, ptr %8, align 8
  %60 = getelementptr inbounds %struct.Elf64_Shdr, ptr %59, i32 0, i32 3
  %61 = load i64, ptr %60, align 8
  %62 = load ptr, ptr %4, align 8
  %63 = getelementptr inbounds %struct.lib_info, ptr %62, i32 0, i32 5
  %64 = getelementptr inbounds %struct.eh_frame_info, ptr %63, i32 0, i32 1
  store i64 %61, ptr %64, align 8
  %65 = load ptr, ptr %4, align 8
  %66 = getelementptr inbounds %struct.lib_info, ptr %65, i32 0, i32 7
  %67 = load i32, ptr %66, align 8
  %68 = load ptr, ptr %8, align 8
  %69 = call ptr @read_section_data(i32 noundef %67, ptr noundef %6, ptr noundef %68)
  %70 = load ptr, ptr %4, align 8
  %71 = getelementptr inbounds %struct.lib_info, ptr %70, i32 0, i32 5
  %72 = getelementptr inbounds %struct.eh_frame_info, ptr %71, i32 0, i32 2
  store ptr %69, ptr %72, align 8
  %73 = load ptr, ptr %8, align 8
  %74 = getelementptr inbounds %struct.Elf64_Shdr, ptr %73, i32 0, i32 5
  %75 = load i64, ptr %74, align 8
  %76 = trunc i64 %75 to i32
  %77 = load ptr, ptr %4, align 8
  %78 = getelementptr inbounds %struct.lib_info, ptr %77, i32 0, i32 5
  %79 = getelementptr inbounds %struct.eh_frame_info, ptr %78, i32 0, i32 3
  store i32 %76, ptr %79, align 8
  br label %86

80:                                               ; preds = %43
  br label %81

81:                                               ; preds = %80
  %82 = load i32, ptr %10, align 4
  %83 = add nsw i32 %82, 1
  store i32 %83, ptr %10, align 4
  %84 = load ptr, ptr %8, align 8
  %85 = getelementptr inbounds %struct.Elf64_Shdr, ptr %84, i32 1
  store ptr %85, ptr %8, align 8
  br label %37, !llvm.loop !9

86:                                               ; preds = %52, %37
  %87 = load ptr, ptr %9, align 8
  call void @free(ptr noundef %87) #6
  %88 = load ptr, ptr %7, align 8
  call void @free(ptr noundef %88) #6
  %89 = load ptr, ptr %4, align 8
  %90 = getelementptr inbounds %struct.lib_info, ptr %89, i32 0, i32 7
  %91 = load i32, ptr %90, align 8
  %92 = load i64, ptr %5, align 8
  %93 = call i64 @lseek64(i32 noundef %91, i64 noundef %92, i32 noundef 0) #6
  %94 = load ptr, ptr %4, align 8
  %95 = getelementptr inbounds %struct.lib_info, ptr %94, i32 0, i32 5
  %96 = getelementptr inbounds %struct.eh_frame_info, ptr %95, i32 0, i32 2
  %97 = load ptr, ptr %96, align 8
  %98 = icmp ne ptr %97, null
  %99 = zext i1 %98 to i32
  ret i32 %99
}