; Function Attrs: nounwind uwtable
define hidden range(i32 0, 2) i32 @read_eh_frame(ptr nocapture readnone %0, ptr nocapture noundef %1) local_unnamed_addr #9 {
  %3 = alloca %struct.Elf64_Ehdr, align 8
  %4 = getelementptr inbounds i8, ptr %1, i64 4424
  %5 = load i32, ptr %4, align 8
  %6 = tail call i64 @lseek64(i32 noundef %5, i64 noundef 0, i32 noundef 1) #21
  %7 = load i32, ptr %4, align 8
  %8 = tail call i64 @lseek64(i32 noundef %7, i64 noundef 0, i32 noundef 0) #21
  %9 = load i32, ptr %4, align 8
  %10 = call i32 @read_elf_header(i32 noundef %9, ptr noundef nonnull %3) #21
  %11 = load i32, ptr %4, align 8
  %12 = call ptr @read_section_header_table(i32 noundef %11, ptr noundef nonnull %3) #21
  %13 = load i32, ptr %4, align 8
  %14 = getelementptr inbounds i8, ptr %3, i64 62
  %15 = load i16, ptr %14, align 2
  %16 = zext i16 %15 to i64
  %17 = getelementptr inbounds %struct.Elf64_Shdr, ptr %12, i64 %16
  %18 = call ptr @read_section_data(i32 noundef %13, ptr noundef nonnull %3, ptr noundef %17) #21
  %19 = getelementptr inbounds i8, ptr %3, i64 60
  %20 = load i16, ptr %19, align 4
  %21 = zext i16 %20 to i32
  %.not = icmp eq i16 %20, 0
  br i1 %.not, label %.loopexit, label %.lr.ph

.lr.ph:                                           ; preds = %2, %41
  %.028 = phi i32 [ %42, %41 ], [ 0, %2 ]
  %.02527 = phi ptr [ %43, %41 ], [ %12, %2 ]
  %22 = load i32, ptr %.02527, align 8
  %23 = zext i32 %22 to i64
  %24 = getelementptr inbounds i8, ptr %18, i64 %23
  %25 = call i32 @strcmp(ptr noundef nonnull dereferenceable(10) @.str.4, ptr noundef nonnull dereferenceable(1) %24) #22
  %26 = icmp eq i32 %25, 0
  br i1 %26, label %27, label %41

27:                                               ; preds = %.lr.ph
  %28 = getelementptr inbounds i8, ptr %1, i64 4352
  %29 = load i64, ptr %28, align 8
  %30 = getelementptr inbounds i8, ptr %1, i64 4384
  store i64 %29, ptr %30, align 8
  %31 = getelementptr inbounds i8, ptr %.02527, i64 16
  %32 = load i64, ptr %31, align 8
  %33 = getelementptr inbounds i8, ptr %1, i64 4392
  store i64 %32, ptr %33, align 8
  %34 = load i32, ptr %4, align 8
  %35 = call ptr @read_section_data(i32 noundef %34, ptr noundef nonnull %3, ptr noundef nonnull %.02527) #21
  %36 = getelementptr inbounds i8, ptr %1, i64 4400
  store ptr %35, ptr %36, align 8
  %37 = getelementptr inbounds i8, ptr %.02527, i64 32
  %38 = load i64, ptr %37, align 8
  %39 = trunc i64 %38 to i32
  %40 = getelementptr inbounds i8, ptr %1, i64 4408
  store i32 %39, ptr %40, align 8
  br label %.loopexit

41:                                               ; preds = %.lr.ph
  %42 = add nuw nsw i32 %.028, 1
  %43 = getelementptr inbounds i8, ptr %.02527, i64 64
  %exitcond.not = icmp eq i32 %42, %21
  br i1 %exitcond.not, label %.loopexit, label %.lr.ph, !llvm.loop !10

.loopexit:                                        ; preds = %41, %2, %27
  call void @free(ptr noundef %18) #21
  call void @free(ptr noundef %12) #21
  %44 = load i32, ptr %4, align 8
  %45 = call i64 @lseek64(i32 noundef %44, i64 noundef %6, i32 noundef 0) #21
  %46 = getelementptr inbounds i8, ptr %1, i64 4400
  %47 = load ptr, ptr %46, align 8
  %48 = icmp ne ptr %47, null
  %49 = zext i1 %48 to i32
  ret i32 %49
}